; Function Attrs: nounwind uwtable
define range(i32 0, 2) i32 @ossl_dsa_check_pairwise(ptr noundef %0) local_unnamed_addr #0 {
  %2 = getelementptr inbounds nuw i8, ptr %0, i64 8
  %3 = load ptr, ptr %2, align 8, !tbaa !20
  %4 = icmp eq ptr %3, null
  br i1 %4, label %dsa_precheck_params.exit.thread, label %5

5:                                                ; preds = %1
  %6 = getelementptr inbounds nuw i8, ptr %0, i64 16
  %7 = load ptr, ptr %6, align 8, !tbaa !21
  %8 = icmp eq ptr %7, null
  br i1 %8, label %dsa_precheck_params.exit.thread, label %9

9:                                                ; preds = %5
  %10 = tail call i32 @BN_num_bits(ptr noundef nonnull %3) #2
  %11 = icmp sgt i32 %10, 10000
  br i1 %11, label %dsa_precheck_params.exit.thread, label %12

12:                                               ; preds = %9
  %13 = load ptr, ptr %6, align 8, !tbaa !21
  %14 = tail call i32 @BN_num_bits(ptr noundef %13) #2
  %15 = load ptr, ptr %2, align 8, !tbaa !20
  %16 = tail call i32 @BN_num_bits(ptr noundef %15) #2
  %.not.i = icmp slt i32 %14, %16
  br i1 %.not.i, label %dsa_precheck_params.exit, label %dsa_precheck_params.exit.thread

dsa_precheck_params.exit.thread:                  ; preds = %1, %5, %9, %12
  %.sink9.i = phi i32 [ 25, %5 ], [ 25, %1 ], [ 31, %9 ], [ 37, %12 ]
  %.sink.i = phi i32 [ 114, %5 ], [ 114, %1 ], [ 103, %9 ], [ 102, %12 ]
  tail call void @ERR_new() #2
  tail call void @ERR_set_debug(ptr noundef nonnull @.str, i32 noundef %.sink9.i, ptr noundef nonnull @__func__.dsa_precheck_params) #2
  tail call void (i32, i32, ptr, ...) @ERR_set_error(i32 noundef 10, i32 noundef %.sink.i, ptr noundef null) #2
  br label %45

dsa_precheck_params.exit:                         ; preds = %12
  %17 = getelementptr inbounds nuw i8, ptr %0, i64 24
  %18 = load ptr, ptr %17, align 8, !tbaa !23
  %19 = icmp eq ptr %18, null
  br i1 %19, label %45, label %20

20:                                               ; preds = %dsa_precheck_params.exit
  %21 = getelementptr inbounds nuw i8, ptr %0, i64 112
  %22 = load ptr, ptr %21, align 8, !tbaa !24
  %23 = icmp eq ptr %22, null
  br i1 %23, label %45, label %24

24:                                               ; preds = %20
  %25 = getelementptr inbounds nuw i8, ptr %0, i64 104
  %26 = load ptr, ptr %25, align 8, !tbaa !25
  %27 = icmp eq ptr %26, null
  br i1 %27, label %45, label %28

28:                                               ; preds = %24
  %29 = getelementptr inbounds nuw i8, ptr %0, i64 184
  %30 = load ptr, ptr %29, align 8, !tbaa !3
  %31 = tail call ptr @BN_CTX_new_ex(ptr noundef %30) #2
  %32 = icmp eq ptr %31, null
  br i1 %32, label %44, label %33

33:                                               ; preds = %28
  %34 = tail call ptr @BN_new() #2
  %35 = icmp eq ptr %34, null
  br i1 %35, label %44, label %36

36:                                               ; preds = %33
  %37 = load ptr, ptr %21, align 8, !tbaa !24
  %38 = tail call i32 @ossl_dsa_generate_public_key(ptr noundef nonnull %31, ptr noundef nonnull %0, ptr noundef %37, ptr noundef nonnull %34) #2
  %.not18 = icmp eq i32 %38, 0
  br i1 %.not18, label %44, label %39

39:                                               ; preds = %36
  %40 = load ptr, ptr %25, align 8, !tbaa !25
  %41 = tail call i32 @BN_cmp(ptr noundef nonnull %34, ptr noundef %40) #2
  %42 = icmp eq i32 %41, 0
  %43 = zext i1 %42 to i32
  br label %44

44:                                               ; preds = %36, %33, %28, %39
  %.019 = phi i32 [ 0, %28 ], [ 0, %33 ], [ 0, %36 ], [ %43, %39 ]
  %.0 = phi ptr [ null, %28 ], [ null, %33 ], [ %34, %36 ], [ %34, %39 ]
  tail call void @BN_free(ptr noundef %.0) #2
  tail call void @BN_CTX_free(ptr noundef %31) #2
  br label %45

45:                                               ; preds = %dsa_precheck_params.exit.thread, %dsa_precheck_params.exit, %20, %24, %44
  %.015 = phi i32 [ %.019, %44 ], [ 0, %24 ], [ 0, %20 ], [ 0, %dsa_precheck_params.exit ], [ 0, %dsa_precheck_params.exit.thread ]
  ret i32 %.015
}